; Function Attrs: mustprogress uwtable
define hidden void @_ZN19OpenColorIO_v2_4dev18Lut1DTransformImpl8setValueEmfff(ptr noundef nonnull align 8 dereferenceable(376) %this, i64 noundef %index, float noundef %r, float noundef %g, float noundef %b) unnamed_addr #3 align 2 {
entry:
  %vtable = load ptr, ptr %this, align 8
  %vfn = getelementptr inbounds i8, ptr %vtable, i64 96
  %0 = load ptr, ptr %vfn, align 8
  %call = tail call noundef i64 %0(ptr noundef nonnull align 8 dereferenceable(376) %this)
  tail call fastcc void @_ZN19OpenColorIO_v2_4dev12_GLOBAL__N_115CheckLUT1DIndexEPKcmm(ptr noundef nonnull @.str.1, i64 noundef %index, i64 noundef %call)
  %mul = mul i64 %index, 3
  %m_data.i4 = getelementptr inbounds i8, ptr %this, i64 208
  %1 = load ptr, ptr %m_data.i4, align 8
  %add.ptr.i.i = getelementptr inbounds float, ptr %1, i64 %mul
  store float %r, ptr %add.ptr.i.i, align 4
  %2 = load ptr, ptr %m_data.i4, align 8
  %3 = getelementptr float, ptr %2, i64 %mul
  %add.ptr.i.i8 = getelementptr i8, ptr %3, i64 4
  store float %g, ptr %add.ptr.i.i8, align 4
  %4 = load ptr, ptr %m_data.i4, align 8
  %5 = getelementptr float, ptr %4, i64 %mul
  %add.ptr.i.i12 = getelementptr i8, ptr %5, i64 8
  store float %b, ptr %add.ptr.i.i12, align 4
  ret void
}